target datalayout = "e-m:e-p270:32:32-p271:32:32-p272:64:64-i64:64-i128:128-f80:128-n8:16:32:64-S128"
target triple = "x86_64-pc-linux-gnu"

%struct.SN_env = type { ptr, i32, i32, i32, i32, i32, ptr, ptr }

; Function Attrs: nounwind uwtable
define internal i32 @r_remove_suffix(ptr noundef %0) #0 {
  %2 = alloca i32, align 4
  %3 = alloca ptr, align 8
  %4 = alloca i32, align 4
  %5 = alloca i32, align 4
  store ptr %0, ptr %3, align 8
  %6 = load ptr, ptr %3, align 8
  %7 = getelementptr inbounds nuw %struct.SN_env, ptr %6, i32 0, i32 1
  %8 = load i32, ptr %7, align 8
  %9 = load ptr, ptr %3, align 8
  %10 = getelementptr inbounds nuw %struct.SN_env, ptr %9, i32 0, i32 5
  store i32 %8, ptr %10, align 8
  %11 = load ptr, ptr %3, align 8
  %12 = getelementptr inbounds nuw %struct.SN_env, ptr %11, i32 0, i32 1
  %13 = load i32, ptr %12, align 8
  %14 = load ptr, ptr %3, align 8
  %15 = getelementptr inbounds nuw %struct.SN_env, ptr %14, i32 0, i32 3
  %16 = load i32, ptr %15, align 8
  %17 = icmp sle i32 %13, %16
  br i1 %17, label %44, label %18

18:                                               ; preds = %1
  %19 = load ptr, ptr %3, align 8
  %20 = getelementptr inbounds nuw %struct.SN_env, ptr %19, i32 0, i32 0
  %21 = load ptr, ptr %20, align 8
  %22 = load ptr, ptr %3, align 8
  %23 = getelementptr inbounds nuw %struct.SN_env, ptr %22, i32 0, i32 1
  %24 = load i32, ptr %23, align 8
  %25 = sub i32 %24, 1
  %26 = sext i32 %25 to i64
  %27 = getelementptr inbounds i8, ptr %21, i64 %26
  %28 = load i8, ptr %27, align 1
  %29 = zext i8 %28 to i32
  %30 = icmp ne i32 %29, 105
  br i1 %30, label %31, label %45

31:                                               ; preds = %18
  %32 = load ptr, ptr %3, align 8
  %33 = getelementptr inbounds nuw %struct.SN_env, ptr %32, i32 0, i32 0
  %34 = load ptr, ptr %33, align 8
  %35 = load ptr, ptr %3, align 8
  %36 = getelementptr inbounds nuw %struct.SN_env, ptr %35, i32 0, i32 1
  %37 = load i32, ptr %36, align 8
  %38 = sub i32 %37, 1
  %39 = sext i32 %38 to i64
  %40 = getelementptr inbounds i8, ptr %34, i64 %39
  %41 = load i8, ptr %40, align 1
  %42 = zext i8 %41 to i32
  %43 = icmp ne i32 %42, 110
  br i1 %43, label %44, label %45

44:                                               ; preds = %31, %1
  store i32 0, ptr %2, align 4
  br label %72

45:                                               ; preds = %31, %18
  %46 = load ptr, ptr %3, align 8
  %47 = call i32 @find_among_b(ptr noundef %46, ptr noundef @a_2, i32 noundef 3)
  %48 = icmp ne i32 %47, 0
  br i1 %48, label %50, label %49

49:                                               ; preds = %45
  store i32 0, ptr %2, align 4
  br label %72

50:                                               ; preds = %45
  %51 = load ptr, ptr %3, align 8
  %52 = getelementptr inbounds nuw %struct.SN_env, ptr %51, i32 0, i32 1
  %53 = load i32, ptr %52, align 8
  %54 = load ptr, ptr %3, align 8
  %55 = getelementptr inbounds nuw %struct.SN_env, ptr %54, i32 0, i32 4
  store i32 %53, ptr %55, align 4
  call void @llvm.lifetime.start.p0(i64 4, ptr %4) #3
  %56 = load ptr, ptr %3, align 8
  %57 = call i32 @slice_del(ptr noundef %56)
  store i32 %57, ptr %4, align 4
  %58 = load i32, ptr %4, align 4
  %59 = icmp slt i32 %58, 0
  br i1 %59, label %60, label %62

60:                                               ; preds = %50
  %61 = load i32, ptr %4, align 4
  store i32 %61, ptr %2, align 4
  store i32 1, ptr %5, align 4
  br label %63

62:                                               ; preds = %50
  store i32 0, ptr %5, align 4
  br label %63

63:                                               ; preds = %62, %60
  call void @llvm.lifetime.end.p0(i64 4, ptr %4) #3
  %64 = load i32, ptr %5, align 4
  switch i32 %64, label %74 [
    i32 0, label %65
    i32 1, label %72
  ]

65:                                               ; preds = %63
  %66 = load ptr, ptr %3, align 8
  %67 = getelementptr inbounds nuw %struct.SN_env, ptr %66, i32 0, i32 7
  %68 = load ptr, ptr %67, align 8
  %69 = getelementptr inbounds i32, ptr %68, i64 1
  %70 = load i32, ptr %69, align 4
  %71 = sub i32 %70, 1
  store i32 %71, ptr %69, align 4
  store i32 1, ptr %2, align 4
  br label %72

72:                                               ; preds = %65, %63, %49, %44
  %73 = load i32, ptr %2, align 4
  ret i32 %73

74:                                               ; preds = %63
  unreachable
}